target datalayout = "e-m:e-p270:32:32-p271:32:32-p272:64:64-i64:64-i128:128-f80:128-n8:16:32:64-S128"
target triple = "x86_64-pc-linux-gnu"

%struct.pac_s = type { %struct.pai_s, %struct.ecache_s, %struct.ecache_s, %struct.ecache_s, ptr, ptr, ptr, %struct.exp_grow_s, %struct.malloc_mutex_s, %struct.san_bump_alloc_s, %struct.atomic_zu_t, %struct.decay_s, %struct.decay_s, ptr, ptr, %struct.atomic_zu_t }
%struct.pai_s = type { ptr, ptr, ptr, ptr, ptr, ptr, ptr }
%struct.ecache_s = type { %struct.malloc_mutex_s, %struct.eset_s, %struct.eset_s, i32, i32, i8 }
%struct.eset_s = type { [4 x i64], [200 x %struct.eset_bin_s], [200 x %struct.eset_bin_stats_s], %struct.edata_list_inactive_t, %struct.atomic_zu_t, i32 }
%struct.eset_bin_s = type { %struct.edata_heap_t, %struct.edata_cmp_summary_s }
%struct.edata_heap_t = type { %struct.ph_s }
%struct.ph_s = type { ptr, i64 }
%struct.edata_cmp_summary_s = type { i64, i64 }
%struct.eset_bin_stats_s = type { %struct.atomic_zu_t, %struct.atomic_zu_t }
%struct.edata_list_inactive_t = type { %struct.anon.1 }
%struct.anon.1 = type { ptr }
%struct.exp_grow_s = type { i32, i32 }
%struct.malloc_mutex_s = type { %union.anon }
%union.anon = type { %struct.anon }
%struct.anon = type { %struct.mutex_prof_data_t, %union.pthread_mutex_t, %struct.atomic_b_t }
%struct.mutex_prof_data_t = type { %struct.nstime_t, %struct.nstime_t, i64, i64, i32, %struct.atomic_u32_t, i64, ptr, i64 }
%struct.nstime_t = type { i64 }
%struct.atomic_u32_t = type { i32 }
%union.pthread_mutex_t = type { %struct.__pthread_mutex_s }
%struct.__pthread_mutex_s = type { i32, i32, i32, i32, i32, i16, i16, %struct.__pthread_internal_list }
%struct.__pthread_internal_list = type { ptr, ptr }
%struct.atomic_b_t = type { i8 }
%struct.san_bump_alloc_s = type { %struct.malloc_mutex_s, ptr }
%struct.decay_s = type { %struct.malloc_mutex_s, i8, %struct.atomic_zd_t, %struct.nstime_t, %struct.nstime_t, i64, %struct.nstime_t, i64, i64, [200 x i64], i64 }
%struct.atomic_zd_t = type { i64 }
%struct.atomic_zu_t = type { i64 }
%struct.edata_s = type { i64, ptr, %union.anon.2, ptr, i64, %union.anon.3, %union.anon.6 }
%union.anon.2 = type { i64 }
%union.anon.3 = type { %union.anon.5 }
%union.anon.5 = type { %struct.edata_heap_link_t }
%struct.edata_heap_link_t = type { %struct.phn_link_s }
%struct.phn_link_s = type { ptr, ptr, ptr }
%union.anon.6 = type { %struct.slab_data_s }
%struct.slab_data_s = type { [8 x i64] }

; Function Attrs: inlinehint nounwind uwtable
define internal void @san_unguard_pages_two_sided(ptr noundef %0, ptr noundef %1, ptr noundef %2, ptr noundef %3) #2 {
  %5 = alloca ptr, align 8
  %6 = alloca ptr, align 8
  %7 = alloca ptr, align 8
  %8 = alloca ptr, align 8
  store ptr %0, ptr %5, align 8, !tbaa !4
  store ptr %1, ptr %6, align 8, !tbaa !61
  store ptr %2, ptr %7, align 8, !tbaa !63
  store ptr %3, ptr %8, align 8, !tbaa !13
  %9 = load ptr, ptr %5, align 8, !tbaa !4
  %10 = load ptr, ptr %6, align 8, !tbaa !61
  %11 = load ptr, ptr %7, align 8, !tbaa !63
  %12 = load ptr, ptr %8, align 8, !tbaa !13
  call void @je_san_unguard_pages(ptr noundef %9, ptr noundef %10, ptr noundef %11, ptr noundef %12, i1 noundef zeroext true, i1 noundef zeroext true)
  ret void
}

; Function Attrs: inlinehint nounwind uwtable
define internal zeroext i1 @edata_slab_get(ptr noundef %0) #2 {
  %2 = alloca ptr, align 8
  store ptr %0, ptr %2, align 8, !tbaa !63
  %3 = load ptr, ptr %2, align 8, !tbaa !63
  %4 = getelementptr inbounds nuw %struct.edata_s, ptr %3, i32 0, i32 0
  %5 = load i64, ptr %4, align 8, !tbaa !89
  %6 = and i64 %5, 4096
  %7 = lshr i64 %6, 12
  %8 = icmp ne i64 %7, 0
  ret i1 %8
}

; Function Attrs: inlinehint nounwind uwtable
define internal zeroext i1 @edata_guarded_get(ptr noundef %0) #2 {
  %2 = alloca ptr, align 8
  store ptr %0, ptr %2, align 8, !tbaa !63
  %3 = load ptr, ptr %2, align 8, !tbaa !63
  %4 = getelementptr inbounds nuw %struct.edata_s, ptr %3, i32 0, i32 0
  %5 = load i64, ptr %4, align 8, !tbaa !89
  %6 = and i64 %5, 65536
  %7 = lshr i64 %6, 16
  %8 = icmp ne i64 %7, 0
  ret i1 %8
}

; Function Attrs: inlinehint nounwind uwtable
define internal ptr @pac_ehooks_get(ptr noundef %0) #2 {
  %2 = alloca ptr, align 8
  store ptr %0, ptr %2, align 8, !tbaa !9
  %3 = load ptr, ptr %2, align 8, !tbaa !9
  %4 = getelementptr inbounds nuw %struct.pac_s, ptr %3, i32 0, i32 4
  %5 = load ptr, ptr %4, align 8, !tbaa !26
  %6 = call ptr @je_base_ehooks_get(ptr noundef %5)
  ret ptr %6
}

; Function Attrs: nounwind uwtable
define internal void @pac_dalloc_impl(ptr noundef %0, ptr noundef %1, ptr noundef %2, ptr noundef %3) #0 {
  %5 = alloca ptr, align 8
  %6 = alloca ptr, align 8
  %7 = alloca ptr, align 8
  %8 = alloca ptr, align 8
  %9 = alloca ptr, align 8
  %10 = alloca ptr, align 8
  store ptr %0, ptr %5, align 8, !tbaa !4
  store ptr %1, ptr %6, align 8, !tbaa !57
  store ptr %2, ptr %7, align 8, !tbaa !63
  store ptr %3, ptr %8, align 8, !tbaa !59
  call void @llvm.lifetime.start.p0(i64 8, ptr %9) #8
  %11 = load ptr, ptr %6, align 8, !tbaa !57
  store ptr %11, ptr %9, align 8, !tbaa !9
  call void @llvm.lifetime.start.p0(i64 8, ptr %10) #8
  %12 = load ptr, ptr %9, align 8, !tbaa !9
  %13 = call ptr @pac_ehooks_get(ptr noundef %12)
  store ptr %13, ptr %10, align 8, !tbaa !61
  %14 = load ptr, ptr %7, align 8, !tbaa !63
  %15 = call zeroext i1 @edata_guarded_get(ptr noundef %14)
  br i1 %15, label %16, label %30

16:                                               ; preds = %4
  %17 = load ptr, ptr %7, align 8, !tbaa !63
  %18 = call zeroext i1 @edata_slab_get(ptr noundef %17)
  br i1 %18, label %29, label %19

19:                                               ; preds = %16
  br label %20

20:                                               ; preds = %19
  br label %21

21:                                               ; preds = %20
  br label %22

22:                                               ; preds = %21
  %23 = load ptr, ptr %5, align 8, !tbaa !4
  %24 = load ptr, ptr %10, align 8, !tbaa !61
  %25 = load ptr, ptr %7, align 8, !tbaa !63
  %26 = load ptr, ptr %9, align 8, !tbaa !9
  %27 = getelementptr inbounds nuw %struct.pac_s, ptr %26, i32 0, i32 5
  %28 = load ptr, ptr %27, align 8, !tbaa !40
  call void @san_unguard_pages_two_sided(ptr noundef %23, ptr noundef %24, ptr noundef %25, ptr noundef %28)
  br label %29

29:                                               ; preds = %22, %16
  br label %30

30:                                               ; preds = %29, %4
  %31 = load ptr, ptr %5, align 8, !tbaa !4
  %32 = load ptr, ptr %9, align 8, !tbaa !9
  %33 = load ptr, ptr %10, align 8, !tbaa !61
  %34 = load ptr, ptr %9, align 8, !tbaa !9
  %35 = getelementptr inbounds nuw %struct.pac_s, ptr %34, i32 0, i32 1
  %36 = load ptr, ptr %7, align 8, !tbaa !63
  call void @je_ecache_dalloc(ptr noundef %31, ptr noundef %32, ptr noundef %33, ptr noundef %35, ptr noundef %36)
  %37 = load ptr, ptr %8, align 8, !tbaa !59
  store i8 1, ptr %37, align 1, !tbaa !53
  call void @llvm.lifetime.end.p0(i64 8, ptr %10) #8
  call void @llvm.lifetime.end.p0(i64 8, ptr %9) #8
  ret void
}