; Function Attrs: nounwind uwtable
define internal void @pac_dalloc_impl(ptr noundef %0, ptr noundef %1, ptr noundef %2, ptr noundef writeonly captures(none) initializes((0, 1)) %3) #0 {
  %5 = getelementptr i8, ptr %1, i64 58376
  %.val = load ptr, ptr %5, align 8, !tbaa !15
  %6 = tail call ptr @je_base_ehooks_get(ptr noundef %.val) #9
  %.val14 = load i64, ptr %2, align 8, !tbaa !49
  %7 = and i64 %.val14, 69632
  %or.cond.not = icmp eq i64 %7, 65536
  br i1 %or.cond.not, label %8, label %11

8:                                                ; preds = %4
  %9 = getelementptr inbounds nuw i8, ptr %1, i64 58384
  %10 = load ptr, ptr %9, align 8, !tbaa !32
  tail call void @je_san_unguard_pages(ptr noundef %0, ptr noundef %6, ptr noundef nonnull %2, ptr noundef %10, i1 noundef zeroext true, i1 noundef zeroext true) #9
  br label %11

11:                                               ; preds = %8, %4
  %12 = getelementptr inbounds nuw i8, ptr %1, i64 56
  tail call void @je_ecache_dalloc(ptr noundef %0, ptr noundef nonnull %1, ptr noundef %6, ptr noundef nonnull %12, ptr noundef nonnull %2) #9
  store i8 1, ptr %3, align 1, !tbaa !43
  ret void
}